(lp1
(lp2
I774
aI928
aI848
aI624
aI857
aI913
aI855
aI837
aa(lp3
I941
aI937
aI847
aI864
aI845
aI920
aI967
aI956
aa(lp4
I900
aI978
aI835
aI928
aI892
aI943
aI935
aI871
aa(lp5
I895
aI957
aI889
aI903
aI994
aI971
aI952
aI976
aa.