(lp1
(lp2
I466
aI699
aI635
aI293
aI537
aI654
aI446
aI416
aa(lp3
I739
aI724
aI492
aI601
aI537
aI624
aI642
aI699
aa(lp4
I657
aI810
aI612
aI703
aI680
aI748
aI762
aI584
aa(lp5
I624
aI733
aI649
aI638
aI841
aI797
aI777
aI811
aa.